target datalayout = "e-m:e-p270:32:32-p271:32:32-p272:64:64-i64:64-i128:128-f80:128-n8:16:32:64-S128"
target triple = "x86_64-unknown-linux-gnu"

%"class.grpc_core::IntraActivityWaiter" = type { i16 }
%struct.grpc_polling_entity = type <{ %union.anon.199, i32, [4 x i8] }>
%union.anon.199 = type { ptr }
%"class.grpc_core::Latch.198" = type { %struct.grpc_polling_entity.base, i8, %"class.grpc_core::IntraActivityWaiter" }
%struct.grpc_polling_entity.base = type <{ %union.anon.199, i32 }>
%"class.std::unique_ptr.576" = type { %"struct.std::__uniq_ptr_data.577" }
%"struct.std::__uniq_ptr_data.577" = type { %"class.std::__uniq_ptr_impl.578" }
%"class.std::__uniq_ptr_impl.578" = type { %"class.std::tuple.579" }
%"class.std::tuple.579" = type { %"struct.std::_Tuple_impl.580" }
%"struct.std::_Tuple_impl.580" = type { %"struct.std::_Head_base.583" }
%"struct.std::_Head_base.583" = type { ptr }

@_ZN9grpc_core8Activity19g_current_activity_E = external thread_local global ptr, align 8

; Function Attrs: mustprogress nounwind uwtable
define internal noundef nonnull align 1 dereferenceable(1) ptr @_ZNSt10_Head_baseILm1EZN9grpc_core12_GLOBAL__N_121MakeServerCallPromiseEPNS0_9TransportENS0_8CallArgsESt8functionIFNS0_12ArenaPromiseISt10unique_ptrI19grpc_metadata_batchNS0_5Arena13PooledDeleterEEEES4_EEE25CleanupPollingEntityLatchLb1EE7_M_headERSG_(ptr noundef nonnull align 1 dereferenceable(1) %__b) #4 align 2 {
entry:
  %__b.addr = alloca ptr, align 8
  store ptr %__b, ptr %__b.addr, align 8
  %0 = load ptr, ptr %__b.addr, align 8
  ret ptr %0
}

; Function Attrs: mustprogress nounwind uwtable
define linkonce_odr noundef zeroext i16 @_ZSt10__exchangeItiET_RS0_OT0_(ptr noundef nonnull align 2 dereferenceable(2) %__obj, ptr noundef nonnull align 4 dereferenceable(4) %__new_val) #4 comdat {
entry:
  %__obj.addr = alloca ptr, align 8
  %__new_val.addr = alloca ptr, align 8
  %__old_val = alloca i16, align 2
  store ptr %__obj, ptr %__obj.addr, align 8
  store ptr %__new_val, ptr %__new_val.addr, align 8
  %0 = load ptr, ptr %__obj.addr, align 8
  %1 = load i16, ptr %0, align 2
  store i16 %1, ptr %__old_val, align 2
  %2 = load ptr, ptr %__new_val.addr, align 8
  %3 = load i32, ptr %2, align 4
  %conv = trunc i32 %3 to i16
  %4 = load ptr, ptr %__obj.addr, align 8
  store i16 %conv, ptr %4, align 2
  %5 = load i16, ptr %__old_val, align 2
  ret i16 %5
}

; Function Attrs: uwtable
define linkonce_odr hidden noundef ptr @_ZTWN9grpc_core8Activity19g_current_activity_E() #10 comdat {
  br i1 icmp ne (ptr @_ZTHN9grpc_core8Activity19g_current_activity_E, ptr null), label %1, label %2

1:                                                ; preds = %0
  call void @_ZTHN9grpc_core8Activity19g_current_activity_E()
  br label %2

2:                                                ; preds = %1, %0
  %3 = call align 8 ptr @llvm.threadlocal.address.p0(ptr align 8 @_ZN9grpc_core8Activity19g_current_activity_E)
  ret ptr %3
}

; Function Attrs: mustprogress nounwind uwtable
define internal noundef nonnull align 1 dereferenceable(1) ptr @_ZNSt11_Tuple_implILm1EJZN9grpc_core12_GLOBAL__N_121MakeServerCallPromiseEPNS0_9TransportENS0_8CallArgsESt8functionIFNS0_12ArenaPromiseISt10unique_ptrI19grpc_metadata_batchNS0_5Arena13PooledDeleterEEEES4_EEE25CleanupPollingEntityLatchEE7_M_headERSG_(ptr noundef nonnull align 1 dereferenceable(1) %__t) #4 align 2 {
entry:
  %__t.addr = alloca ptr, align 8
  store ptr %__t, ptr %__t.addr, align 8
  %0 = load ptr, ptr %__t.addr, align 8
  %call = call noundef nonnull align 1 dereferenceable(1) ptr @_ZNSt10_Head_baseILm1EZN9grpc_core12_GLOBAL__N_121MakeServerCallPromiseEPNS0_9TransportENS0_8CallArgsESt8functionIFNS0_12ArenaPromiseISt10unique_ptrI19grpc_metadata_batchNS0_5Arena13PooledDeleterEEEES4_EEE25CleanupPollingEntityLatchLb1EE7_M_headERSG_(ptr noundef nonnull align 1 dereferenceable(1) %0) #3
  ret ptr %call
}

; Function Attrs: mustprogress nounwind uwtable
define linkonce_odr noundef nonnull align 8 dereferenceable(8) ptr @_ZNSt10_Head_baseILm0EPN9grpc_core5LatchI19grpc_polling_entityEELb0EE7_M_headERS5_(ptr noundef nonnull align 8 dereferenceable(8) %__b) #4 comdat align 2 {
entry:
  %__b.addr = alloca ptr, align 8
  store ptr %__b, ptr %__b.addr, align 8
  %0 = load ptr, ptr %__b.addr, align 8
  %_M_head_impl = getelementptr inbounds %"struct.std::_Head_base.583", ptr %0, i32 0, i32 0
  ret ptr %_M_head_impl
}

; Function Attrs: mustprogress nounwind uwtable
define linkonce_odr noundef zeroext i16 @_ZSt8exchangeItiET_RS0_OT0_(ptr noundef nonnull align 2 dereferenceable(2) %__obj, ptr noundef nonnull align 4 dereferenceable(4) %__new_val) #4 comdat personality ptr @__gxx_personality_v0 {
entry:
  %__obj.addr = alloca ptr, align 8
  %__new_val.addr = alloca ptr, align 8
  store ptr %__obj, ptr %__obj.addr, align 8
  store ptr %__new_val, ptr %__new_val.addr, align 8
  %0 = load ptr, ptr %__obj.addr, align 8
  %1 = load ptr, ptr %__new_val.addr, align 8
  %call = invoke noundef zeroext i16 @_ZSt10__exchangeItiET_RS0_OT0_(ptr noundef nonnull align 2 dereferenceable(2) %0, ptr noundef nonnull align 4 dereferenceable(4) %1)
          to label %invoke.cont unwind label %terminate.lpad

invoke.cont:                                      ; preds = %entry
  ret i16 %call

terminate.lpad:                                   ; preds = %entry
  %2 = landingpad { ptr, i32 }
          catch ptr null
  %3 = extractvalue { ptr, i32 } %2, 0
  call void @__clang_call_terminate(ptr %3) #16
  unreachable
}

; Function Attrs: mustprogress uwtable
define linkonce_odr noundef ptr @_ZN9grpc_core8Activity7currentEv() #5 comdat align 2 {
entry:
  %0 = call ptr @_ZTWN9grpc_core8Activity19g_current_activity_E()
  %1 = load ptr, ptr %0, align 8
  ret ptr %1
}

; Function Attrs: mustprogress nounwind uwtable
define internal noundef nonnull align 1 dereferenceable(1) ptr @_ZSt12__get_helperILm1EZN9grpc_core12_GLOBAL__N_121MakeServerCallPromiseEPNS0_9TransportENS0_8CallArgsESt8functionIFNS0_12ArenaPromiseISt10unique_ptrI19grpc_metadata_batchNS0_5Arena13PooledDeleterEEEES4_EEE25CleanupPollingEntityLatchJEERT0_RSt11_Tuple_implIXT_EJSG_DpT1_EE(ptr noundef nonnull align 1 dereferenceable(1) %__t) #4 {
entry:
  %__t.addr = alloca ptr, align 8
  store ptr %__t, ptr %__t.addr, align 8
  %0 = load ptr, ptr %__t.addr, align 8
  %call = call noundef nonnull align 1 dereferenceable(1) ptr @_ZNSt11_Tuple_implILm1EJZN9grpc_core12_GLOBAL__N_121MakeServerCallPromiseEPNS0_9TransportENS0_8CallArgsESt8functionIFNS0_12ArenaPromiseISt10unique_ptrI19grpc_metadata_batchNS0_5Arena13PooledDeleterEEEES4_EEE25CleanupPollingEntityLatchEE7_M_headERSG_(ptr noundef nonnull align 1 dereferenceable(1) %0) #3
  ret ptr %call
}

; Function Attrs: mustprogress nounwind uwtable
define internal noundef nonnull align 8 dereferenceable(8) ptr @_ZNSt11_Tuple_implILm0EJPN9grpc_core5LatchI19grpc_polling_entityEEZNS0_12_GLOBAL__N_121MakeServerCallPromiseEPNS0_9TransportENS0_8CallArgsESt8functionIFNS0_12ArenaPromiseISt10unique_ptrI19grpc_metadata_batchNS0_5Arena13PooledDeleterEEEES8_EEE25CleanupPollingEntityLatchEE7_M_headERSK_(ptr noundef nonnull align 8 dereferenceable(8) %__t) #4 align 2 {
entry:
  %__t.addr = alloca ptr, align 8
  store ptr %__t, ptr %__t.addr, align 8
  %0 = load ptr, ptr %__t.addr, align 8
  %call = call noundef nonnull align 8 dereferenceable(8) ptr @_ZNSt10_Head_baseILm0EPN9grpc_core5LatchI19grpc_polling_entityEELb0EE7_M_headERS5_(ptr noundef nonnull align 8 dereferenceable(8) %0) #3
  ret ptr %call
}

; Function Attrs: mustprogress uwtable
define linkonce_odr void @_ZN9grpc_core19IntraActivityWaiter4WakeEv(ptr noundef nonnull align 2 dereferenceable(2) %this) #5 comdat align 2 {
entry:
  %this.addr = alloca ptr, align 8
  %ref.tmp = alloca i32, align 4
  store ptr %this, ptr %this.addr, align 8
  %this1 = load ptr, ptr %this.addr, align 8
  %wakeups_ = getelementptr inbounds %"class.grpc_core::IntraActivityWaiter", ptr %this1, i32 0, i32 0
  %0 = load i16, ptr %wakeups_, align 2
  %conv = zext i16 %0 to i32
  %cmp = icmp eq i32 %conv, 0
  br i1 %cmp, label %if.then, label %if.end

if.then:                                          ; preds = %entry
  br label %return

if.end:                                           ; preds = %entry
  %call = call noundef ptr @_ZN9grpc_core8Activity7currentEv()
  %wakeups_2 = getelementptr inbounds %"class.grpc_core::IntraActivityWaiter", ptr %this1, i32 0, i32 0
  store i32 0, ptr %ref.tmp, align 4
  %call3 = call noundef zeroext i16 @_ZSt8exchangeItiET_RS0_OT0_(ptr noundef nonnull align 2 dereferenceable(2) %wakeups_2, ptr noundef nonnull align 4 dereferenceable(4) %ref.tmp) #3
  %vtable = load ptr, ptr %call, align 8
  %vfn = getelementptr inbounds ptr, ptr %vtable, i64 3
  %1 = load ptr, ptr %vfn, align 8
  call void %1(ptr noundef nonnull align 8 dereferenceable(8) %call, i16 noundef zeroext %call3)
  br label %return

return:                                           ; preds = %if.end, %if.then
  ret void
}

; Function Attrs: mustprogress nounwind uwtable
define linkonce_odr void @_ZN19grpc_polling_entityUt_C2Ev(ptr noundef nonnull align 8 dereferenceable(8) %this) unnamed_addr #4 comdat align 2 {
entry:
  %this.addr = alloca ptr, align 8
  store ptr %this, ptr %this.addr, align 8
  %this1 = load ptr, ptr %this.addr, align 8
  store ptr null, ptr %this1, align 8
  ret void
}

; Function Attrs: mustprogress nounwind uwtable
define internal noundef nonnull align 1 dereferenceable(1) ptr @_ZSt3getILm1EJPN9grpc_core5LatchI19grpc_polling_entityEEZNS0_12_GLOBAL__N_121MakeServerCallPromiseEPNS0_9TransportENS0_8CallArgsESt8functionIFNS0_12ArenaPromiseISt10unique_ptrI19grpc_metadata_batchNS0_5Arena13PooledDeleterEEEES8_EEE25CleanupPollingEntityLatchEERNSt13tuple_elementIXT_ESt5tupleIJDpT0_EEE4typeERSO_(ptr noundef nonnull align 8 dereferenceable(8) %__t) #4 {
entry:
  %__t.addr = alloca ptr, align 8
  store ptr %__t, ptr %__t.addr, align 8
  %0 = load ptr, ptr %__t.addr, align 8
  %call = call noundef nonnull align 1 dereferenceable(1) ptr @_ZSt12__get_helperILm1EZN9grpc_core12_GLOBAL__N_121MakeServerCallPromiseEPNS0_9TransportENS0_8CallArgsESt8functionIFNS0_12ArenaPromiseISt10unique_ptrI19grpc_metadata_batchNS0_5Arena13PooledDeleterEEEES4_EEE25CleanupPollingEntityLatchJEERT0_RSt11_Tuple_implIXT_EJSG_DpT1_EE(ptr noundef nonnull align 1 dereferenceable(1) %0) #3
  ret ptr %call
}

; Function Attrs: mustprogress nounwind uwtable
define internal noundef nonnull align 8 dereferenceable(8) ptr @_ZSt12__get_helperILm0EPN9grpc_core5LatchI19grpc_polling_entityEEJZNS0_12_GLOBAL__N_121MakeServerCallPromiseEPNS0_9TransportENS0_8CallArgsESt8functionIFNS0_12ArenaPromiseISt10unique_ptrI19grpc_metadata_batchNS0_5Arena13PooledDeleterEEEES8_EEE25CleanupPollingEntityLatchEERT0_RSt11_Tuple_implIXT_EJSK_DpT1_EE(ptr noundef nonnull align 8 dereferenceable(8) %__t) #4 {
entry:
  %__t.addr = alloca ptr, align 8
  store ptr %__t, ptr %__t.addr, align 8
  %0 = load ptr, ptr %__t.addr, align 8
  %call = call noundef nonnull align 8 dereferenceable(8) ptr @_ZNSt11_Tuple_implILm0EJPN9grpc_core5LatchI19grpc_polling_entityEEZNS0_12_GLOBAL__N_121MakeServerCallPromiseEPNS0_9TransportENS0_8CallArgsESt8functionIFNS0_12ArenaPromiseISt10unique_ptrI19grpc_metadata_batchNS0_5Arena13PooledDeleterEEEES8_EEE25CleanupPollingEntityLatchEE7_M_headERSK_(ptr noundef nonnull align 8 dereferenceable(8) %0) #3
  ret ptr %call
}

; Function Attrs: mustprogress uwtable
define linkonce_odr void @_ZN9grpc_core5LatchI19grpc_polling_entityE3SetES1_(ptr noundef nonnull align 8 dereferenceable(16) %this, ptr %value.coerce0, i32 %value.coerce1) #5 comdat align 2 {
entry:
  %value = alloca %struct.grpc_polling_entity, align 8
  %this.addr = alloca ptr, align 8
  %0 = getelementptr inbounds { ptr, i32 }, ptr %value, i32 0, i32 0
  store ptr %value.coerce0, ptr %0, align 8
  %1 = getelementptr inbounds { ptr, i32 }, ptr %value, i32 0, i32 1
  store i32 %value.coerce1, ptr %1, align 8
  store ptr %this, ptr %this.addr, align 8
  %this1 = load ptr, ptr %this.addr, align 8
  %value_ = getelementptr inbounds %"class.grpc_core::Latch.198", ptr %this1, i32 0, i32 0
  call void @llvm.memcpy.p0.p0.i64(ptr align 8 %value_, ptr align 8 %value, i64 12, i1 false)
  %has_value_ = getelementptr inbounds %"class.grpc_core::Latch.198", ptr %this1, i32 0, i32 1
  store i8 1, ptr %has_value_, align 4
  %waiter_ = getelementptr inbounds %"class.grpc_core::Latch.198", ptr %this1, i32 0, i32 2
  call void @_ZN9grpc_core19IntraActivityWaiter4WakeEv(ptr noundef nonnull align 2 dereferenceable(2) %waiter_)
  ret void
}

; Function Attrs: mustprogress nounwind uwtable
define linkonce_odr void @_ZN19grpc_polling_entityC2Ev(ptr noundef nonnull align 8 dereferenceable(12) %this) unnamed_addr #4 comdat align 2 {
entry:
  %this.addr = alloca ptr, align 8
  store ptr %this, ptr %this.addr, align 8
  %this1 = load ptr, ptr %this.addr, align 8
  %pollent = getelementptr inbounds %struct.grpc_polling_entity, ptr %this1, i32 0, i32 0
  call void @_ZN19grpc_polling_entityUt_C2Ev(ptr noundef nonnull align 8 dereferenceable(8) %pollent) #3
  %tag = getelementptr inbounds %struct.grpc_polling_entity, ptr %this1, i32 0, i32 1
  store i32 0, ptr %tag, align 8
  ret void
}

; Function Attrs: mustprogress nounwind uwtable
define linkonce_odr noundef zeroext i1 @_ZNK9grpc_core5LatchI19grpc_polling_entityE6is_setEv(ptr noundef nonnull align 8 dereferenceable(16) %this) #4 comdat align 2 {
entry:
  %this.addr = alloca ptr, align 8
  store ptr %this, ptr %this.addr, align 8
  %this1 = load ptr, ptr %this.addr, align 8
  %has_value_ = getelementptr inbounds %"class.grpc_core::Latch.198", ptr %this1, i32 0, i32 1
  %0 = load i8, ptr %has_value_, align 4
  %tobool = trunc i8 %0 to i1
  ret i1 %tobool
}

; Function Attrs: mustprogress nounwind uwtable
define internal noundef nonnull align 1 dereferenceable(1) ptr @_ZNSt15__uniq_ptr_implIN9grpc_core5LatchI19grpc_polling_entityEEZNS0_12_GLOBAL__N_121MakeServerCallPromiseEPNS0_9TransportENS0_8CallArgsESt8functionIFNS0_12ArenaPromiseISt10unique_ptrI19grpc_metadata_batchNS0_5Arena13PooledDeleterEEEES7_EEE25CleanupPollingEntityLatchE10_M_deleterEv(ptr noundef nonnull align 8 dereferenceable(8) %this) #4 align 2 {
entry:
  %this.addr = alloca ptr, align 8
  store ptr %this, ptr %this.addr, align 8
  %this1 = load ptr, ptr %this.addr, align 8
  %_M_t = getelementptr inbounds %"class.std::__uniq_ptr_impl.578", ptr %this1, i32 0, i32 0
  %call = call noundef nonnull align 1 dereferenceable(1) ptr @_ZSt3getILm1EJPN9grpc_core5LatchI19grpc_polling_entityEEZNS0_12_GLOBAL__N_121MakeServerCallPromiseEPNS0_9TransportENS0_8CallArgsESt8functionIFNS0_12ArenaPromiseISt10unique_ptrI19grpc_metadata_batchNS0_5Arena13PooledDeleterEEEES8_EEE25CleanupPollingEntityLatchEERNSt13tuple_elementIXT_ESt5tupleIJDpT0_EEE4typeERSO_(ptr noundef nonnull align 8 dereferenceable(8) %_M_t) #3
  ret ptr %call
}

; Function Attrs: mustprogress nounwind uwtable
define internal noundef nonnull align 8 dereferenceable(8) ptr @_ZSt3getILm0EJPN9grpc_core5LatchI19grpc_polling_entityEEZNS0_12_GLOBAL__N_121MakeServerCallPromiseEPNS0_9TransportENS0_8CallArgsESt8functionIFNS0_12ArenaPromiseISt10unique_ptrI19grpc_metadata_batchNS0_5Arena13PooledDeleterEEEES8_EEE25CleanupPollingEntityLatchEERNSt13tuple_elementIXT_ESt5tupleIJDpT0_EEE4typeERSO_(ptr noundef nonnull align 8 dereferenceable(8) %__t) #4 {
entry:
  %__t.addr = alloca ptr, align 8
  store ptr %__t, ptr %__t.addr, align 8
  %0 = load ptr, ptr %__t.addr, align 8
  %call = call noundef nonnull align 8 dereferenceable(8) ptr @_ZSt12__get_helperILm0EPN9grpc_core5LatchI19grpc_polling_entityEEJZNS0_12_GLOBAL__N_121MakeServerCallPromiseEPNS0_9TransportENS0_8CallArgsESt8functionIFNS0_12ArenaPromiseISt10unique_ptrI19grpc_metadata_batchNS0_5Arena13PooledDeleterEEEES8_EEE25CleanupPollingEntityLatchEERT0_RSt11_Tuple_implIXT_EJSK_DpT1_EE(ptr noundef nonnull align 8 dereferenceable(8) %0) #3
  ret ptr %call
}

; Function Attrs: mustprogress uwtable
define internal void @_ZZN9grpc_core12_GLOBAL__N_121MakeServerCallPromiseEPNS_9TransportENS_8CallArgsESt8functionIFNS_12ArenaPromiseISt10unique_ptrI19grpc_metadata_batchNS_5Arena13PooledDeleterEEEES3_EEEN25CleanupPollingEntityLatchclEPNS_5LatchI19grpc_polling_entityEE(ptr noundef nonnull align 1 dereferenceable(1) %this, ptr noundef %latch) #5 align 2 {
entry:
  %this.addr = alloca ptr, align 8
  %latch.addr = alloca ptr, align 8
  %agg.tmp = alloca %struct.grpc_polling_entity, align 8
  store ptr %this, ptr %this.addr, align 8
  store ptr %latch, ptr %latch.addr, align 8
  %0 = load ptr, ptr %latch.addr, align 8
  %call = call noundef zeroext i1 @_ZNK9grpc_core5LatchI19grpc_polling_entityE6is_setEv(ptr noundef nonnull align 8 dereferenceable(16) %0)
  br i1 %call, label %if.end, label %if.then

if.then:                                          ; preds = %entry
  %1 = load ptr, ptr %latch.addr, align 8
  call void @llvm.memset.p0.i64(ptr align 8 %agg.tmp, i8 0, i64 16, i1 false)
  call void @_ZN19grpc_polling_entityC2Ev(ptr noundef nonnull align 8 dereferenceable(12) %agg.tmp) #3
  %2 = getelementptr inbounds { ptr, i32 }, ptr %agg.tmp, i32 0, i32 0
  %3 = load ptr, ptr %2, align 8
  %4 = getelementptr inbounds { ptr, i32 }, ptr %agg.tmp, i32 0, i32 1
  %5 = load i32, ptr %4, align 8
  call void @_ZN9grpc_core5LatchI19grpc_polling_entityE3SetES1_(ptr noundef nonnull align 8 dereferenceable(16) %1, ptr %3, i32 %5)
  br label %if.end

if.end:                                           ; preds = %if.then, %entry
  ret void
}

; Function Attrs: mustprogress nounwind uwtable
define internal noundef nonnull align 1 dereferenceable(1) ptr @_ZNSt10unique_ptrIN9grpc_core5LatchI19grpc_polling_entityEEZNS0_12_GLOBAL__N_121MakeServerCallPromiseEPNS0_9TransportENS0_8CallArgsESt8functionIFNS0_12ArenaPromiseIS_I19grpc_metadata_batchNS0_5Arena13PooledDeleterEEEES7_EEE25CleanupPollingEntityLatchE11get_deleterEv(ptr noundef nonnull align 8 dereferenceable(8) %this) #4 align 2 {
entry:
  %this.addr = alloca ptr, align 8
  store ptr %this, ptr %this.addr, align 8
  %this1 = load ptr, ptr %this.addr, align 8
  %_M_t = getelementptr inbounds %"class.std::unique_ptr.576", ptr %this1, i32 0, i32 0
  %call = call noundef nonnull align 1 dereferenceable(1) ptr @_ZNSt15__uniq_ptr_implIN9grpc_core5LatchI19grpc_polling_entityEEZNS0_12_GLOBAL__N_121MakeServerCallPromiseEPNS0_9TransportENS0_8CallArgsESt8functionIFNS0_12ArenaPromiseISt10unique_ptrI19grpc_metadata_batchNS0_5Arena13PooledDeleterEEEES7_EEE25CleanupPollingEntityLatchE10_M_deleterEv(ptr noundef nonnull align 8 dereferenceable(8) %_M_t) #3
  ret ptr %call
}

; Function Attrs: mustprogress nounwind uwtable
define internal noundef nonnull align 8 dereferenceable(8) ptr @_ZNSt15__uniq_ptr_implIN9grpc_core5LatchI19grpc_polling_entityEEZNS0_12_GLOBAL__N_121MakeServerCallPromiseEPNS0_9TransportENS0_8CallArgsESt8functionIFNS0_12ArenaPromiseISt10unique_ptrI19grpc_metadata_batchNS0_5Arena13PooledDeleterEEEES7_EEE25CleanupPollingEntityLatchE6_M_ptrEv(ptr noundef nonnull align 8 dereferenceable(8) %this) #4 align 2 {
entry:
  %this.addr = alloca ptr, align 8
  store ptr %this, ptr %this.addr, align 8
  %this1 = load ptr, ptr %this.addr, align 8
  %_M_t = getelementptr inbounds %"class.std::__uniq_ptr_impl.578", ptr %this1, i32 0, i32 0
  %call = call noundef nonnull align 8 dereferenceable(8) ptr @_ZSt3getILm0EJPN9grpc_core5LatchI19grpc_polling_entityEEZNS0_12_GLOBAL__N_121MakeServerCallPromiseEPNS0_9TransportENS0_8CallArgsESt8functionIFNS0_12ArenaPromiseISt10unique_ptrI19grpc_metadata_batchNS0_5Arena13PooledDeleterEEEES8_EEE25CleanupPollingEntityLatchEERNSt13tuple_elementIXT_ESt5tupleIJDpT0_EEE4typeERSO_(ptr noundef nonnull align 8 dereferenceable(8) %_M_t) #3
  ret ptr %call
}

; Function Attrs: mustprogress nounwind uwtable
define internal void @_ZNSt10unique_ptrIN9grpc_core5LatchI19grpc_polling_entityEEZNS0_12_GLOBAL__N_121MakeServerCallPromiseEPNS0_9TransportENS0_8CallArgsESt8functionIFNS0_12ArenaPromiseIS_I19grpc_metadata_batchNS0_5Arena13PooledDeleterEEEES7_EEE25CleanupPollingEntityLatchED2Ev(ptr noundef nonnull align 8 dereferenceable(8) %this) unnamed_addr #4 align 2 personality ptr @__gxx_personality_v0 {
entry:
  %this.addr = alloca ptr, align 8
  %__ptr = alloca ptr, align 8
  store ptr %this, ptr %this.addr, align 8
  %this1 = load ptr, ptr %this.addr, align 8
  %_M_t = getelementptr inbounds %"class.std::unique_ptr.576", ptr %this1, i32 0, i32 0
  %call = call noundef nonnull align 8 dereferenceable(8) ptr @_ZNSt15__uniq_ptr_implIN9grpc_core5LatchI19grpc_polling_entityEEZNS0_12_GLOBAL__N_121MakeServerCallPromiseEPNS0_9TransportENS0_8CallArgsESt8functionIFNS0_12ArenaPromiseISt10unique_ptrI19grpc_metadata_batchNS0_5Arena13PooledDeleterEEEES7_EEE25CleanupPollingEntityLatchE6_M_ptrEv(ptr noundef nonnull align 8 dereferenceable(8) %_M_t) #3
  store ptr %call, ptr %__ptr, align 8
  %0 = load ptr, ptr %__ptr, align 8
  %1 = load ptr, ptr %0, align 8
  %cmp = icmp ne ptr %1, null
  br i1 %cmp, label %if.then, label %if.end

if.then:                                          ; preds = %entry
  %call2 = call noundef nonnull align 1 dereferenceable(1) ptr @_ZNSt10unique_ptrIN9grpc_core5LatchI19grpc_polling_entityEEZNS0_12_GLOBAL__N_121MakeServerCallPromiseEPNS0_9TransportENS0_8CallArgsESt8functionIFNS0_12ArenaPromiseIS_I19grpc_metadata_batchNS0_5Arena13PooledDeleterEEEES7_EEE25CleanupPollingEntityLatchE11get_deleterEv(ptr noundef nonnull align 8 dereferenceable(8) %this1) #3
  %2 = load ptr, ptr %__ptr, align 8
  %3 = load ptr, ptr %2, align 8
  invoke void @_ZZN9grpc_core12_GLOBAL__N_121MakeServerCallPromiseEPNS_9TransportENS_8CallArgsESt8functionIFNS_12ArenaPromiseISt10unique_ptrI19grpc_metadata_batchNS_5Arena13PooledDeleterEEEES3_EEEN25CleanupPollingEntityLatchclEPNS_5LatchI19grpc_polling_entityEE(ptr noundef nonnull align 1 dereferenceable(1) %call2, ptr noundef %3)
          to label %invoke.cont unwind label %terminate.lpad

invoke.cont:                                      ; preds = %if.then
  br label %if.end

if.end:                                           ; preds = %invoke.cont, %entry
  %4 = load ptr, ptr %__ptr, align 8
  store ptr null, ptr %4, align 8
  ret void

terminate.lpad:                                   ; preds = %if.then
  %5 = landingpad { ptr, i32 }
          catch ptr null
  %6 = extractvalue { ptr, i32 } %5, 0
  call void @__clang_call_terminate(ptr %6) #16
  unreachable
}