; Function Attrs: nounwind uwtable
define internal fastcc void @_ZNSt10unique_ptrIN9grpc_core5LatchI19grpc_polling_entityEEZNS0_12_GLOBAL__N_121MakeServerCallPromiseEPNS0_9TransportENS0_8CallArgsESt8functionIFNS0_12ArenaPromiseIS_I19grpc_metadata_batchNS0_5Arena13PooledDeleterEEEES7_EEE25CleanupPollingEntityLatchED2Ev(ptr nocapture noundef nonnull align 8 dereferenceable(8) %this) unnamed_addr #11 align 2 personality ptr @__gxx_personality_v0 {
entry:
  %0 = load ptr, ptr %this, align 8
  %cmp.not = icmp eq ptr %0, null
  br i1 %cmp.not, label %if.end, label %if.then

if.then:                                          ; preds = %entry
  %has_value_.i.i = getelementptr inbounds i8, ptr %0, i64 12
  %1 = load i8, ptr %has_value_.i.i, align 4
  %2 = and i8 %1, 1
  %tobool.i.not.i = icmp eq i8 %2, 0
  br i1 %tobool.i.not.i, label %if.then.i, label %if.end

if.then.i:                                        ; preds = %if.then
  store ptr null, ptr %0, align 8
  %value.sroa.2.0.value_.sroa_idx.i.i = getelementptr inbounds i8, ptr %0, i64 8
  store i32 0, ptr %value.sroa.2.0.value_.sroa_idx.i.i, align 8
  store i8 1, ptr %has_value_.i.i, align 4
  %waiter_.i.i = getelementptr inbounds i8, ptr %0, i64 14
  %3 = load i16, ptr %waiter_.i.i, align 2
  %cmp.i.i.i = icmp eq i16 %3, 0
  br i1 %cmp.i.i.i, label %if.end, label %if.end.i.i.i

if.end.i.i.i:                                     ; preds = %if.then.i
  br i1 icmp ne (ptr @_ZTHN9grpc_core8Activity19g_current_activity_E, ptr null), label %4, label %_ZN9grpc_core8Activity7currentEv.exit.i.i.i

4:                                                ; preds = %if.end.i.i.i
  invoke void @_ZTHN9grpc_core8Activity19g_current_activity_E()
          to label %.noexc unwind label %terminate.lpad

.noexc:                                           ; preds = %4
  %.pre.i.i.i = load i16, ptr %waiter_.i.i, align 2
  br label %_ZN9grpc_core8Activity7currentEv.exit.i.i.i

_ZN9grpc_core8Activity7currentEv.exit.i.i.i:      ; preds = %.noexc, %if.end.i.i.i
  %5 = phi i16 [ %3, %if.end.i.i.i ], [ %.pre.i.i.i, %.noexc ]
  %6 = tail call noundef align 8 ptr @llvm.threadlocal.address.p0(ptr align 8 @_ZN9grpc_core8Activity19g_current_activity_E)
  %7 = load ptr, ptr %6, align 8
  store i16 0, ptr %waiter_.i.i, align 2
  %vtable.i.i.i = load ptr, ptr %7, align 8
  %vfn.i.i.i = getelementptr inbounds i8, ptr %vtable.i.i.i, i64 24
  %8 = load ptr, ptr %vfn.i.i.i, align 8
  invoke void %8(ptr noundef nonnull align 8 dereferenceable(8) %7, i16 noundef zeroext %5)
          to label %if.end unwind label %terminate.lpad

if.end:                                           ; preds = %if.then.i, %if.then, %_ZN9grpc_core8Activity7currentEv.exit.i.i.i, %entry
  store ptr null, ptr %this, align 8
  ret void

terminate.lpad:                                   ; preds = %_ZN9grpc_core8Activity7currentEv.exit.i.i.i, %4
  %9 = landingpad { ptr, i32 }
          catch ptr null
  %10 = extractvalue { ptr, i32 } %9, 0
  tail call void @__clang_call_terminate(ptr %10) #24
  unreachable
}